target datalayout = "e-m:e-p270:32:32-p271:32:32-p272:64:64-i64:64-i128:128-f80:128-n8:16:32:64-S128"
target triple = "x86_64-pc-linux-gnu"

@UseG1GC = external global i8, align 1
@G1RemSetHowlMaxNumBuckets = external global i32, align 4
@.str.5 = private unnamed_addr constant [56 x i8] c"G1RemSetMaxHowlNumBuckets (%u) must be a power of two.\0A\00", align 1

; Function Attrs: mustprogress nounwind uwtable
define linkonce_odr hidden noundef zeroext i1 @_Z13is_power_of_2IjTnNSt9enable_ifIXcvbsr3std11is_integralIT_EE5valueEiE4typeELi0EEbS1_(i32 noundef %0) #1 comdat {
  %2 = alloca i32, align 4
  store i32 %0, ptr %2, align 4
  %3 = load i32, ptr %2, align 4
  %4 = icmp ugt i32 %3, 0
  br i1 %4, label %5, label %11

5:                                                ; preds = %1
  %6 = load i32, ptr %2, align 4
  %7 = load i32, ptr %2, align 4
  %8 = sub i32 %7, 1
  %9 = and i32 %6, %8
  %10 = icmp eq i32 %9, 0
  br label %11

11:                                               ; preds = %5, %1
  %12 = phi i1 [ false, %1 ], [ %10, %5 ]
  ret i1 %12
}

; Function Attrs: mustprogress nounwind uwtable
define hidden noundef i32 @_Z39G1RemSetHowlMaxNumBucketsConstraintFuncjb(i32 noundef %0, i1 noundef zeroext %1) #1 {
  %3 = alloca i32, align 4
  %4 = alloca i32, align 4
  %5 = alloca i8, align 1
  store i32 %0, ptr %4, align 4
  %6 = zext i1 %1 to i8
  store i8 %6, ptr %5, align 1
  %7 = load i8, ptr @UseG1GC, align 1
  %8 = trunc i8 %7 to i1
  br i1 %8, label %10, label %9

9:                                                ; preds = %2
  store i32 0, ptr %3, align 4
  br label %21

10:                                               ; preds = %2
  %11 = call noundef zeroext i1 @_ZN7JVMFlag10is_cmdlineE12JVMFlagsEnum(i32 noundef 967)
  br i1 %11, label %13, label %12

12:                                               ; preds = %10
  store i32 0, ptr %3, align 4
  br label %21

13:                                               ; preds = %10
  %14 = load i32, ptr @G1RemSetHowlMaxNumBuckets, align 4
  %15 = call noundef zeroext i1 @_Z13is_power_of_2IjTnNSt9enable_ifIXcvbsr3std11is_integralIT_EE5valueEiE4typeELi0EEbS1_(i32 noundef %14)
  br i1 %15, label %20, label %16

16:                                               ; preds = %13
  %17 = load i8, ptr %5, align 1
  %18 = trunc i8 %17 to i1
  %19 = load i32, ptr %4, align 4
  call void (i1, ptr, ...) @_ZN7JVMFlag10printErrorEbPKcz(i1 noundef zeroext %18, ptr noundef @.str.5, i32 noundef %19)
  store i32 6, ptr %3, align 4
  br label %21

20:                                               ; preds = %13
  store i32 0, ptr %3, align 4
  br label %21

21:                                               ; preds = %20, %16, %12, %9
  %22 = load i32, ptr %3, align 4
  ret i32 %22
}