; Function Attrs: mustprogress nounwind uwtable
define hidden noundef range(i32 0, 7) i32 @_Z39G1RemSetHowlMaxNumBucketsConstraintFuncjb(i32 noundef %0, i1 noundef zeroext %1) local_unnamed_addr #0 {
  %3 = load i8, ptr @UseG1GC, align 1
  %4 = trunc i8 %3 to i1
  br i1 %4, label %5, label %10

5:                                                ; preds = %2
  %6 = tail call noundef zeroext i1 @_ZN7JVMFlag10is_cmdlineE12JVMFlagsEnum(i32 noundef 967) #4
  br i1 %6, label %7, label %10

7:                                                ; preds = %5
  %8 = load i32, ptr @G1RemSetHowlMaxNumBuckets, align 4
  %9 = tail call range(i32 0, 33) i32 @llvm.ctpop.i32(i32 %8)
  %or.cond = icmp eq i32 %9, 1
  br i1 %or.cond, label %10, label %_Z13is_power_of_2IjTnNSt9enable_ifIXcvbsr3std11is_integralIT_EE5valueEiE4typeELi0EEbS1_.exit.thread

_Z13is_power_of_2IjTnNSt9enable_ifIXcvbsr3std11is_integralIT_EE5valueEiE4typeELi0EEbS1_.exit.thread: ; preds = %7
  tail call void (i1, ptr, ...) @_ZN7JVMFlag10printErrorEbPKcz(i1 noundef zeroext %1, ptr noundef nonnull @.str.5, i32 noundef %0) #4
  br label %10

10:                                               ; preds = %7, %5, %2, %_Z13is_power_of_2IjTnNSt9enable_ifIXcvbsr3std11is_integralIT_EE5valueEiE4typeELi0EEbS1_.exit.thread
  %.0 = phi i32 [ 6, %_Z13is_power_of_2IjTnNSt9enable_ifIXcvbsr3std11is_integralIT_EE5valueEiE4typeELi0EEbS1_.exit.thread ], [ 0, %2 ], [ 0, %5 ], [ 0, %7 ]
  ret i32 %.0
}